; ModuleID = 'source-C-CXX/61/57.cpp'
source_filename = "source-C-CXX/61/57.cpp"
target datalayout = "e-m:e-p270:32:32-p271:32:32-p272:64:64-i64:64-f80:128-n8:16:32:64-S128"
target triple = "x86_64-pc-linux-gnu"

%"class.std::ios_base::Init" = type { i8 }
%"class.std::basic_istream" = type { i32 (...)**, i64, %"class.std::basic_ios" }
%"class.std::basic_ios" = type { %"class.std::ios_base", %"class.std::basic_ostream"*, i8, i8, %"class.std::basic_streambuf"*, %"class.std::ctype"*, %"class.std::num_put"*, %"class.std::num_get"* }
%"class.std::ios_base" = type { i32 (...)**, i64, i64, i32, i32, i32, %"struct.std::ios_base::_Callback_list"*, %"struct.std::ios_base::_Words", [8 x %"struct.std::ios_base::_Words"], i32, %"struct.std::ios_base::_Words"*, %"class.std::locale" }
%"struct.std::ios_base::_Callback_list" = type { %"struct.std::ios_base::_Callback_list"*, void (i32, %"class.std::ios_base"*, i32)*, i32, i32 }
%"struct.std::ios_base::_Words" = type { i8*, i64 }
%"class.std::locale" = type { %"class.std::locale::_Impl"* }
%"class.std::locale::_Impl" = type { i32, %"class.std::locale::facet"**, i64, %"class.std::locale::facet"**, i8** }
%"class.std::locale::facet" = type <{ i32 (...)**, i32, [4 x i8] }>
%"class.std::basic_ostream" = type { i32 (...)**, %"class.std::basic_ios" }
%"class.std::basic_streambuf" = type { i32 (...)**, i8*, i8*, i8*, i8*, i8*, i8*, %"class.std::locale" }
%"class.std::ctype" = type <{ %"class.std::locale::facet.base", [4 x i8], %struct.__locale_struct*, i8, [7 x i8], i32*, i32*, i16*, i8, [256 x i8], [256 x i8], i8, [6 x i8] }>
%"class.std::locale::facet.base" = type <{ i32 (...)**, i32 }>
%struct.__locale_struct = type { [13 x %struct.__locale_data*], i16*, i32*, i32*, [13 x i8*] }
%struct.__locale_data = type opaque
%"class.std::num_put" = type { %"class.std::locale::facet.base", [4 x i8] }
%"class.std::num_get" = type { %"class.std::locale::facet.base", [4 x i8] }

@_ZStL8__ioinit = internal global %"class.std::ios_base::Init" zeroinitializer, align 1
@__dso_handle = external hidden global i8
@_ZSt3cin = external global %"class.std::basic_istream", align 8
@_ZSt4cout = external global %"class.std::basic_ostream", align 8
@llvm.global_ctors = appending global [1 x { i32, void ()*, i8* }] [{ i32, void ()*, i8* } { i32 65535, void ()* @_GLOBAL__sub_I_57.cpp, i8* null }]

declare void @_ZNSt8ios_base4InitC1Ev(%"class.std::ios_base::Init"* nonnull align 1 dereferenceable(1)) unnamed_addr #0

; Function Attrs: nounwind
declare void @_ZNSt8ios_base4InitD1Ev(%"class.std::ios_base::Init"* nonnull align 1 dereferenceable(1)) unnamed_addr #1

; Function Attrs: nofree nounwind
declare i32 @__cxa_atexit(void (i8*)*, i8*, i8*) local_unnamed_addr #2

; Function Attrs: mustprogress norecurse sspstrong uwtable
define dso_local i32 @main() local_unnamed_addr #3 {
  %1 = alloca [101 x i8], align 16
  %2 = getelementptr inbounds [101 x i8], [101 x i8]* %1, i64 0, i64 0
  call void @llvm.lifetime.start.p0i8(i64 101, i8* nonnull %2) #8
  %3 = load i8*, i8** bitcast (%"class.std::basic_istream"* @_ZSt3cin to i8**), align 8, !tbaa !5
  %4 = getelementptr i8, i8* %3, i64 -24
  %5 = bitcast i8* %4 to i64*
  %6 = load i64, i64* %5, align 8
  %7 = add nsw i64 %6, 240
  %8 = getelementptr inbounds i8, i8* bitcast (%"class.std::basic_istream"* @_ZSt3cin to i8*), i64 %7
  %9 = bitcast i8* %8 to %"class.std::ctype"**
  %10 = load %"class.std::ctype"*, %"class.std::ctype"** %9, align 8, !tbaa !8
  %11 = icmp eq %"class.std::ctype"* %10, null
  br i1 %11, label %12, label %13

12:                                               ; preds = %0
  tail call void @_ZSt16__throw_bad_castv() #9
  unreachable

13:                                               ; preds = %0
  %14 = getelementptr inbounds %"class.std::ctype", %"class.std::ctype"* %10, i64 0, i32 8
  %15 = load i8, i8* %14, align 8, !tbaa !13
  %16 = icmp eq i8 %15, 0
  br i1 %16, label %20, label %17

17:                                               ; preds = %13
  %18 = getelementptr inbounds %"class.std::ctype", %"class.std::ctype"* %10, i64 0, i32 9, i64 10
  %19 = load i8, i8* %18, align 1, !tbaa !15
  br label %26

20:                                               ; preds = %13
  tail call void @_ZNKSt5ctypeIcE13_M_widen_initEv(%"class.std::ctype"* nonnull align 8 dereferenceable(570) %10)
  %21 = bitcast %"class.std::ctype"* %10 to i8 (%"class.std::ctype"*, i8)***
  %22 = load i8 (%"class.std::ctype"*, i8)**, i8 (%"class.std::ctype"*, i8)*** %21, align 8, !tbaa !5
  %23 = getelementptr inbounds i8 (%"class.std::ctype"*, i8)*, i8 (%"class.std::ctype"*, i8)** %22, i64 6
  %24 = load i8 (%"class.std::ctype"*, i8)*, i8 (%"class.std::ctype"*, i8)** %23, align 8
  %25 = tail call signext i8 %24(%"class.std::ctype"* nonnull align 8 dereferenceable(570) %10, i8 signext 10)
  br label %26

26:                                               ; preds = %17, %20
  %27 = phi i8 [ %19, %17 ], [ %25, %20 ]
  %28 = call nonnull align 8 dereferenceable(16) %"class.std::basic_istream"* @_ZNSi7getlineEPclc(%"class.std::basic_istream"* nonnull align 8 dereferenceable(16) @_ZSt3cin, i8* nonnull %2, i64 101, i8 signext %27)
  %29 = call i64 @strlen(i8* noundef nonnull %2) #10
  %30 = trunc i64 %29 to i32
  %31 = icmp sgt i32 %30, 0
  br i1 %31, label %32, label %35

32:                                               ; preds = %26
  %33 = add i32 %30, -2
  %34 = add i32 %30, -2
  br label %65

35:                                               ; preds = %180, %26
  %36 = call i64 @strlen(i8* noundef nonnull dereferenceable(1) %2) #8
  %37 = call nonnull align 8 dereferenceable(8) %"class.std::basic_ostream"* @_ZSt16__ostream_insertIcSt11char_traitsIcEERSt13basic_ostreamIT_T0_ES6_PKS3_l(%"class.std::basic_ostream"* nonnull align 8 dereferenceable(8) @_ZSt4cout, i8* nonnull %2, i64 %36)
  %38 = load i8*, i8** bitcast (%"class.std::basic_ostream"* @_ZSt4cout to i8**), align 8, !tbaa !5
  %39 = getelementptr i8, i8* %38, i64 -24
  %40 = bitcast i8* %39 to i64*
  %41 = load i64, i64* %40, align 8
  %42 = add nsw i64 %41, 240
  %43 = getelementptr inbounds i8, i8* bitcast (%"class.std::basic_ostream"* @_ZSt4cout to i8*), i64 %42
  %44 = bitcast i8* %43 to %"class.std::ctype"**
  %45 = load %"class.std::ctype"*, %"class.std::ctype"** %44, align 8, !tbaa !8
  %46 = icmp eq %"class.std::ctype"* %45, null
  br i1 %46, label %47, label %48

47:                                               ; preds = %35
  call void @_ZSt16__throw_bad_castv() #9
  unreachable

48:                                               ; preds = %35
  %49 = getelementptr inbounds %"class.std::ctype", %"class.std::ctype"* %45, i64 0, i32 8
  %50 = load i8, i8* %49, align 8, !tbaa !13
  %51 = icmp eq i8 %50, 0
  br i1 %51, label %55, label %52

52:                                               ; preds = %48
  %53 = getelementptr inbounds %"class.std::ctype", %"class.std::ctype"* %45, i64 0, i32 9, i64 10
  %54 = load i8, i8* %53, align 1, !tbaa !15
  br label %61

55:                                               ; preds = %48
  call void @_ZNKSt5ctypeIcE13_M_widen_initEv(%"class.std::ctype"* nonnull align 8 dereferenceable(570) %45)
  %56 = bitcast %"class.std::ctype"* %45 to i8 (%"class.std::ctype"*, i8)***
  %57 = load i8 (%"class.std::ctype"*, i8)**, i8 (%"class.std::ctype"*, i8)*** %56, align 8, !tbaa !5
  %58 = getelementptr inbounds i8 (%"class.std::ctype"*, i8)*, i8 (%"class.std::ctype"*, i8)** %57, i64 6
  %59 = load i8 (%"class.std::ctype"*, i8)*, i8 (%"class.std::ctype"*, i8)** %58, align 8
  %60 = call signext i8 %59(%"class.std::ctype"* nonnull align 8 dereferenceable(570) %45, i8 signext 10)
  br label %61

61:                                               ; preds = %52, %55
  %62 = phi i8 [ %54, %52 ], [ %60, %55 ]
  %63 = call nonnull align 8 dereferenceable(8) %"class.std::basic_ostream"* @_ZNSo3putEc(%"class.std::basic_ostream"* nonnull align 8 dereferenceable(8) @_ZSt4cout, i8 signext %62)
  %64 = call nonnull align 8 dereferenceable(8) %"class.std::basic_ostream"* @_ZNSo5flushEv(%"class.std::basic_ostream"* nonnull align 8 dereferenceable(8) %63)
  call void @llvm.lifetime.end.p0i8(i64 101, i8* nonnull %2) #8
  ret i32 0

65:                                               ; preds = %32, %180
  %66 = phi i32 [ %182, %180 ], [ 0, %32 ]
  %67 = sext i32 %66 to i64
  %68 = getelementptr inbounds [101 x i8], [101 x i8]* %1, i64 0, i64 %67
  %69 = load i8, i8* %68, align 1, !tbaa !15
  %70 = icmp eq i8 %69, 32
  br i1 %70, label %71, label %180

71:                                               ; preds = %65
  %72 = add nsw i32 %66, 1
  %73 = sext i32 %72 to i64
  %74 = getelementptr inbounds [101 x i8], [101 x i8]* %1, i64 0, i64 %73
  %75 = load i8, i8* %74, align 1, !tbaa !15
  %76 = icmp eq i8 %75, 32
  br i1 %76, label %77, label %180

77:                                               ; preds = %71
  %78 = icmp slt i32 %72, %30
  br i1 %78, label %79, label %178

79:                                               ; preds = %77
  %80 = sub i32 %33, %66
  %81 = zext i32 %80 to i64
  %82 = add nuw nsw i64 %81, 1
  %83 = icmp ult i32 %80, 7
  br i1 %83, label %168, label %84

84:                                               ; preds = %79
  %85 = icmp ult i32 %80, 31
  br i1 %85, label %148, label %86

86:                                               ; preds = %84
  %87 = and i64 %82, 8589934560
  %88 = add nsw i64 %87, -32
  %89 = lshr exact i64 %88, 5
  %90 = add nuw nsw i64 %89, 1
  %91 = and i64 %90, 1
  %92 = icmp eq i64 %88, 0
  br i1 %92, label %126, label %93

93:                                               ; preds = %86
  %94 = and i64 %90, 1152921504606846974
  br label %95

95:                                               ; preds = %95, %93
  %96 = phi i64 [ 0, %93 ], [ %123, %95 ]
  %97 = phi i64 [ %94, %93 ], [ %124, %95 ]
  %98 = add i64 %96, %73
  %99 = add nsw i64 %98, 1
  %100 = getelementptr inbounds [101 x i8], [101 x i8]* %1, i64 0, i64 %99
  %101 = bitcast i8* %100 to <16 x i8>*
  %102 = load <16 x i8>, <16 x i8>* %101, align 1, !tbaa !15
  %103 = getelementptr inbounds i8, i8* %100, i64 16
  %104 = bitcast i8* %103 to <16 x i8>*
  %105 = load <16 x i8>, <16 x i8>* %104, align 1, !tbaa !15
  %106 = getelementptr inbounds [101 x i8], [101 x i8]* %1, i64 0, i64 %98
  %107 = bitcast i8* %106 to <16 x i8>*
  store <16 x i8> %102, <16 x i8>* %107, align 1, !tbaa !15
  %108 = getelementptr inbounds i8, i8* %106, i64 16
  %109 = bitcast i8* %108 to <16 x i8>*
  store <16 x i8> %105, <16 x i8>* %109, align 1, !tbaa !15
  %110 = or i64 %96, 32
  %111 = add i64 %110, %73
  %112 = add nsw i64 %111, 1
  %113 = getelementptr inbounds [101 x i8], [101 x i8]* %1, i64 0, i64 %112
  %114 = bitcast i8* %113 to <16 x i8>*
  %115 = load <16 x i8>, <16 x i8>* %114, align 1, !tbaa !15
  %116 = getelementptr inbounds i8, i8* %113, i64 16
  %117 = bitcast i8* %116 to <16 x i8>*
  %118 = load <16 x i8>, <16 x i8>* %117, align 1, !tbaa !15
  %119 = getelementptr inbounds [101 x i8], [101 x i8]* %1, i64 0, i64 %111
  %120 = bitcast i8* %119 to <16 x i8>*
  store <16 x i8> %115, <16 x i8>* %120, align 1, !tbaa !15
  %121 = getelementptr inbounds i8, i8* %119, i64 16
  %122 = bitcast i8* %121 to <16 x i8>*
  store <16 x i8> %118, <16 x i8>* %122, align 1, !tbaa !15
  %123 = add nuw i64 %96, 64
  %124 = add i64 %97, -2
  %125 = icmp eq i64 %124, 0
  br i1 %125, label %126, label %95, !llvm.loop !16

126:                                              ; preds = %95, %86
  %127 = phi i64 [ 0, %86 ], [ %123, %95 ]
  %128 = icmp eq i64 %91, 0
  br i1 %128, label %142, label %129

129:                                              ; preds = %126
  %130 = add i64 %127, %73
  %131 = add nsw i64 %130, 1
  %132 = getelementptr inbounds [101 x i8], [101 x i8]* %1, i64 0, i64 %131
  %133 = bitcast i8* %132 to <16 x i8>*
  %134 = load <16 x i8>, <16 x i8>* %133, align 1, !tbaa !15
  %135 = getelementptr inbounds i8, i8* %132, i64 16
  %136 = bitcast i8* %135 to <16 x i8>*
  %137 = load <16 x i8>, <16 x i8>* %136, align 1, !tbaa !15
  %138 = getelementptr inbounds [101 x i8], [101 x i8]* %1, i64 0, i64 %130
  %139 = bitcast i8* %138 to <16 x i8>*
  store <16 x i8> %134, <16 x i8>* %139, align 1, !tbaa !15
  %140 = getelementptr inbounds i8, i8* %138, i64 16
  %141 = bitcast i8* %140 to <16 x i8>*
  store <16 x i8> %137, <16 x i8>* %141, align 1, !tbaa !15
  br label %142

142:                                              ; preds = %126, %129
  %143 = icmp eq i64 %82, %87
  br i1 %143, label %178, label %144

144:                                              ; preds = %142
  %145 = add nsw i64 %87, %73
  %146 = and i64 %82, 24
  %147 = icmp eq i64 %146, 0
  br i1 %147, label %168, label %148

148:                                              ; preds = %84, %144
  %149 = phi i64 [ %87, %144 ], [ 0, %84 ]
  %150 = sub i32 %34, %66
  %151 = zext i32 %150 to i64
  %152 = add nuw nsw i64 %151, 1
  %153 = and i64 %152, 8589934584
  %154 = add nsw i64 %153, %73
  br label %155

155:                                              ; preds = %155, %148
  %156 = phi i64 [ %149, %148 ], [ %164, %155 ]
  %157 = add i64 %156, %73
  %158 = add nsw i64 %157, 1
  %159 = getelementptr inbounds [101 x i8], [101 x i8]* %1, i64 0, i64 %158
  %160 = bitcast i8* %159 to <8 x i8>*
  %161 = load <8 x i8>, <8 x i8>* %160, align 1, !tbaa !15
  %162 = getelementptr inbounds [101 x i8], [101 x i8]* %1, i64 0, i64 %157
  %163 = bitcast i8* %162 to <8 x i8>*
  store <8 x i8> %161, <8 x i8>* %163, align 1, !tbaa !15
  %164 = add nuw i64 %156, 8
  %165 = icmp eq i64 %164, %153
  br i1 %165, label %166, label %155, !llvm.loop !19

166:                                              ; preds = %155
  %167 = icmp eq i64 %152, %153
  br i1 %167, label %178, label %168

168:                                              ; preds = %79, %144, %166
  %169 = phi i64 [ %73, %79 ], [ %145, %144 ], [ %154, %166 ]
  br label %170

170:                                              ; preds = %168, %170
  %171 = phi i64 [ %172, %170 ], [ %169, %168 ]
  %172 = add nsw i64 %171, 1
  %173 = getelementptr inbounds [101 x i8], [101 x i8]* %1, i64 0, i64 %172
  %174 = load i8, i8* %173, align 1, !tbaa !15
  %175 = getelementptr inbounds [101 x i8], [101 x i8]* %1, i64 0, i64 %171
  store i8 %174, i8* %175, align 1, !tbaa !15
  %176 = trunc i64 %172 to i32
  %177 = icmp eq i32 %176, %30
  br i1 %177, label %178, label %170, !llvm.loop !20

178:                                              ; preds = %170, %142, %166, %77
  %179 = add nsw i32 %66, -1
  br label %180

180:                                              ; preds = %65, %178, %71
  %181 = phi i32 [ %179, %178 ], [ %66, %71 ], [ %66, %65 ]
  %182 = add nsw i32 %181, 1
  %183 = icmp slt i32 %182, %30
  br i1 %183, label %65, label %35, !llvm.loop !22
}

; Function Attrs: argmemonly mustprogress nofree nosync nounwind willreturn
declare void @llvm.lifetime.start.p0i8(i64 immarg, i8* nocapture) #4

; Function Attrs: argmemonly mustprogress nofree nounwind readonly willreturn
declare i64 @strlen(i8* nocapture) local_unnamed_addr #5

; Function Attrs: argmemonly mustprogress nofree nosync nounwind willreturn
declare void @llvm.lifetime.end.p0i8(i64 immarg, i8* nocapture) #4

declare nonnull align 8 dereferenceable(16) %"class.std::basic_istream"* @_ZNSi7getlineEPclc(%"class.std::basic_istream"* nonnull align 8 dereferenceable(16), i8*, i64, i8 signext) local_unnamed_addr #0

; Function Attrs: noreturn
declare void @_ZSt16__throw_bad_castv() local_unnamed_addr #6

declare void @_ZNKSt5ctypeIcE13_M_widen_initEv(%"class.std::ctype"* nonnull align 8 dereferenceable(570)) local_unnamed_addr #0

declare nonnull align 8 dereferenceable(8) %"class.std::basic_ostream"* @_ZSt16__ostream_insertIcSt11char_traitsIcEERSt13basic_ostreamIT_T0_ES6_PKS3_l(%"class.std::basic_ostream"* nonnull align 8 dereferenceable(8), i8*, i64) local_unnamed_addr #0

declare nonnull align 8 dereferenceable(8) %"class.std::basic_ostream"* @_ZNSo3putEc(%"class.std::basic_ostream"* nonnull align 8 dereferenceable(8), i8 signext) local_unnamed_addr #0

declare nonnull align 8 dereferenceable(8) %"class.std::basic_ostream"* @_ZNSo5flushEv(%"class.std::basic_ostream"* nonnull align 8 dereferenceable(8)) local_unnamed_addr #0

; Function Attrs: sspstrong uwtable
define internal void @_GLOBAL__sub_I_57.cpp() #7 section ".text.startup" {
  tail call void @_ZNSt8ios_base4InitC1Ev(%"class.std::ios_base::Init"* nonnull align 1 dereferenceable(1) @_ZStL8__ioinit)
  %1 = tail call i32 @__cxa_atexit(void (i8*)* bitcast (void (%"class.std::ios_base::Init"*)* @_ZNSt8ios_base4InitD1Ev to void (i8*)*), i8* getelementptr inbounds (%"class.std::ios_base::Init", %"class.std::ios_base::Init"* @_ZStL8__ioinit, i64 0, i32 0), i8* nonnull @__dso_handle) #8
  ret void
}


!llvm.module.flags = !{!0, !1, !2, !3}
!llvm.ident = !{!4}

!0 = !{i32 1, !"wchar_size", i32 4}
!1 = !{i32 7, !"PIC Level", i32 2}
!2 = !{i32 7, !"PIE Level", i32 2}
!3 = !{i32 7, !"uwtable", i32 1}
!4 = !{!"clang version 13.0.0"}
!5 = !{!6, !6, i64 0}
!6 = !{!"vtable pointer", !7, i64 0}
!7 = !{!"Simple C++ TBAA"}
!8 = !{!9, !10, i64 240}
!9 = !{!"_ZTSSt9basic_iosIcSt11char_traitsIcEE", !10, i64 216, !11, i64 224, !12, i64 225, !10, i64 232, !10, i64 240, !10, i64 248, !10, i64 256}
!10 = !{!"any pointer", !11, i64 0}
!11 = !{!"omnipotent char", !7, i64 0}
!12 = !{!"bool", !11, i64 0}
!13 = !{!14, !11, i64 56}
!14 = !{!"_ZTSSt5ctypeIcE", !10, i64 16, !12, i64 24, !10, i64 32, !10, i64 40, !10, i64 48, !11, i64 56, !11, i64 57, !11, i64 313, !11, i64 569}
!15 = !{!11, !11, i64 0}
!16 = distinct !{!16, !17, !18}
!17 = !{!"llvm.loop.mustprogress"}
!18 = !{!"llvm.loop.isvectorized", i32 1}
!19 = distinct !{!19, !17, !18}
!20 = distinct !{!20, !17, !21, !18}
!21 = !{!"llvm.loop.unroll.runtime.disable"}
!22 = distinct !{!22, !17}
